target datalayout = "e-m:e-p270:32:32-p271:32:32-p272:64:64-i64:64-i128:128-f80:128-n8:16:32:64-S128"
target triple = "x86_64-unknown-linux-gnu"

%"class.zmq::ws_decoder_t" = type { %"class.zmq::decoder_base_t", [8 x i8], i8, %"class.zmq::msg_t", i8, i64, i8, i64, i32, [4 x i8] }
%"class.zmq::decoder_base_t" = type { %"class.zmq::i_decoder", { i64, i64 }, ptr, i64, %"class.zmq::shared_message_memory_allocator", ptr }
%"class.zmq::i_decoder" = type { ptr }
%"class.zmq::shared_message_memory_allocator" = type { ptr, i64, i64, ptr, i64 }
%"class.zmq::msg_t" = type { %union.anon }
%union.anon = type { %struct.anon }
%struct.anon = type { ptr, [34 x i8], i8, i8, i32, %"union.zmq::msg_t::group_t" }
%"union.zmq::msg_t::group_t" = type { %struct.anon.1 }
%struct.anon.1 = type { i8, ptr }

; Function Attrs: mustprogress nounwind uwtable
define linkonce_odr void @_ZN3zmq14decoder_base_tINS_12ws_decoder_tENS_31shared_message_memory_allocatorEE9next_stepEPvmMS1_FiPKhE(ptr noundef nonnull align 8 dereferenceable(88) %this, ptr noundef %read_pos_, i64 noundef %to_read_, i64 %next_.coerce0, i64 %next_.coerce1) #5 comdat align 2 {
entry:
  %next_ = alloca { i64, i64 }, align 8
  %this.addr = alloca ptr, align 8
  %read_pos_.addr = alloca ptr, align 8
  %to_read_.addr = alloca i64, align 8
  %next_.addr = alloca { i64, i64 }, align 8
  %0 = getelementptr inbounds { i64, i64 }, ptr %next_, i32 0, i32 0
  store i64 %next_.coerce0, ptr %0, align 8
  %1 = getelementptr inbounds { i64, i64 }, ptr %next_, i32 0, i32 1
  store i64 %next_.coerce1, ptr %1, align 8
  %next_1 = load { i64, i64 }, ptr %next_, align 8
  store ptr %this, ptr %this.addr, align 8
  store ptr %read_pos_, ptr %read_pos_.addr, align 8
  store i64 %to_read_, ptr %to_read_.addr, align 8
  store { i64, i64 } %next_1, ptr %next_.addr, align 8
  %this2 = load ptr, ptr %this.addr, align 8
  %2 = load ptr, ptr %read_pos_.addr, align 8
  %_read_pos = getelementptr inbounds %"class.zmq::decoder_base_t", ptr %this2, i32 0, i32 2
  store ptr %2, ptr %_read_pos, align 8
  %3 = load i64, ptr %to_read_.addr, align 8
  %_to_read = getelementptr inbounds %"class.zmq::decoder_base_t", ptr %this2, i32 0, i32 3
  store i64 %3, ptr %_to_read, align 8
  %4 = load { i64, i64 }, ptr %next_.addr, align 8
  %_next = getelementptr inbounds %"class.zmq::decoder_base_t", ptr %this2, i32 0, i32 1
  store { i64, i64 } %4, ptr %_next, align 8
  ret void
}

; Function Attrs: mustprogress uwtable
define noundef i32 @_ZN3zmq12ws_decoder_t13message_readyEPKh(ptr noundef nonnull align 8 dereferenceable(208) %this, ptr noundef %0) #0 align 2 {
entry:
  %this.addr = alloca ptr, align 8
  %.addr = alloca ptr, align 8
  %mask_index = alloca i32, align 4
  %data = alloca ptr, align 8
  %i = alloca i64, align 8
  %coerce = alloca { i64, i64 }, align 8
  store ptr %this, ptr %this.addr, align 8
  store ptr %0, ptr %.addr, align 8
  %this1 = load ptr, ptr %this.addr, align 8
  %_must_mask = getelementptr inbounds %"class.zmq::ws_decoder_t", ptr %this1, i32 0, i32 6
  %1 = load i8, ptr %_must_mask, align 8
  %tobool = trunc i8 %1 to i1
  br i1 %tobool, label %if.then, label %if.end

if.then:                                          ; preds = %entry
  %_opcode = getelementptr inbounds %"class.zmq::ws_decoder_t", ptr %this1, i32 0, i32 8
  %2 = load i32, ptr %_opcode, align 8
  %cmp = icmp eq i32 %2, 2
  %cond = select i1 %cmp, i32 1, i32 0
  store i32 %cond, ptr %mask_index, align 4
  %_in_progress = getelementptr inbounds %"class.zmq::ws_decoder_t", ptr %this1, i32 0, i32 3
  %call = call noundef ptr @_ZN3zmq5msg_t4dataEv(ptr noundef nonnull align 8 dereferenceable(64) %_in_progress)
  store ptr %call, ptr %data, align 8
  store i64 0, ptr %i, align 8
  br label %for.cond

for.cond:                                         ; preds = %for.inc, %if.then
  %3 = load i64, ptr %i, align 8
  %_size = getelementptr inbounds %"class.zmq::ws_decoder_t", ptr %this1, i32 0, i32 7
  %4 = load i64, ptr %_size, align 8
  %cmp2 = icmp ult i64 %3, %4
  br i1 %cmp2, label %for.body, label %for.end

for.body:                                         ; preds = %for.cond
  %5 = load ptr, ptr %data, align 8
  %6 = load i64, ptr %i, align 8
  %arrayidx = getelementptr inbounds i8, ptr %5, i64 %6
  %7 = load i8, ptr %arrayidx, align 1
  %conv = zext i8 %7 to i32
  %_mask = getelementptr inbounds %"class.zmq::ws_decoder_t", ptr %this1, i32 0, i32 9
  %8 = load i32, ptr %mask_index, align 4
  %rem = srem i32 %8, 4
  %idxprom = sext i32 %rem to i64
  %arrayidx3 = getelementptr inbounds [4 x i8], ptr %_mask, i64 0, i64 %idxprom
  %9 = load i8, ptr %arrayidx3, align 1
  %conv4 = zext i8 %9 to i32
  %xor = xor i32 %conv, %conv4
  %conv5 = trunc i32 %xor to i8
  %10 = load ptr, ptr %data, align 8
  %11 = load i64, ptr %i, align 8
  %arrayidx6 = getelementptr inbounds i8, ptr %10, i64 %11
  store i8 %conv5, ptr %arrayidx6, align 1
  br label %for.inc

for.inc:                                          ; preds = %for.body
  %12 = load i64, ptr %i, align 8
  %inc = add i64 %12, 1
  store i64 %inc, ptr %i, align 8
  %13 = load i32, ptr %mask_index, align 4
  %inc7 = add nsw i32 %13, 1
  store i32 %inc7, ptr %mask_index, align 4
  br label %for.cond, !llvm.loop !4

for.end:                                          ; preds = %for.cond
  br label %if.end

if.end:                                           ; preds = %for.end, %entry
  %_tmpbuf = getelementptr inbounds %"class.zmq::ws_decoder_t", ptr %this1, i32 0, i32 1
  %arraydecay = getelementptr inbounds [8 x i8], ptr %_tmpbuf, i64 0, i64 0
  store { i64, i64 } { i64 ptrtoint (ptr @_ZN3zmq12ws_decoder_t12opcode_readyEPKh to i64), i64 0 }, ptr %coerce, align 8
  %14 = getelementptr inbounds { i64, i64 }, ptr %coerce, i32 0, i32 0
  %15 = load i64, ptr %14, align 8
  %16 = getelementptr inbounds { i64, i64 }, ptr %coerce, i32 0, i32 1
  %17 = load i64, ptr %16, align 8
  call void @_ZN3zmq14decoder_base_tINS_12ws_decoder_tENS_31shared_message_memory_allocatorEE9next_stepEPvmMS1_FiPKhE(ptr noundef nonnull align 8 dereferenceable(88) %this1, ptr noundef %arraydecay, i64 noundef 1, i64 %15, i64 %17)
  ret i32 1
}