; Function Attrs: mustprogress uwtable
define noundef i32 @_ZN3zmq12ws_decoder_t13message_readyEPKh(ptr noundef nonnull align 8 dereferenceable(208) %this, ptr nocapture readnone %0) #0 align 2 {
entry:
  %_must_mask = getelementptr inbounds i8, ptr %this, i64 184
  %1 = load i8, ptr %_must_mask, align 8
  %2 = and i8 %1, 1
  %tobool.not = icmp eq i8 %2, 0
  br i1 %tobool.not, label %if.end, label %if.then

if.then:                                          ; preds = %entry
  %_opcode = getelementptr inbounds i8, ptr %this, i64 200
  %3 = load i32, ptr %_opcode, align 8
  %_in_progress = getelementptr inbounds i8, ptr %this, i64 104
  %call = tail call noundef ptr @_ZN3zmq5msg_t4dataEv(ptr noundef nonnull align 8 dereferenceable(64) %_in_progress)
  %_size = getelementptr inbounds i8, ptr %this, i64 192
  %4 = load i64, ptr %_size, align 8
  %cmp27.not = icmp eq i64 %4, 0
  br i1 %cmp27.not, label %if.end, label %for.body.lr.ph

for.body.lr.ph:                                   ; preds = %if.then
  %cmp = icmp eq i32 %3, 2
  %cond = zext i1 %cmp to i32
  %_mask = getelementptr inbounds i8, ptr %this, i64 204
  br label %for.body

for.body:                                         ; preds = %for.body.lr.ph, %for.body
  %mask_index.09 = phi i32 [ %cond, %for.body.lr.ph ], [ %inc7, %for.body ]
  %i.08 = phi i64 [ 0, %for.body.lr.ph ], [ %inc, %for.body ]
  %arrayidx = getelementptr inbounds i8, ptr %call, i64 %i.08
  %5 = load i8, ptr %arrayidx, align 1
  %rem = and i32 %mask_index.09, 3
  %idxprom = zext nneg i32 %rem to i64
  %arrayidx3 = getelementptr inbounds [4 x i8], ptr %_mask, i64 0, i64 %idxprom
  %6 = load i8, ptr %arrayidx3, align 1
  %xor6 = xor i8 %6, %5
  store i8 %xor6, ptr %arrayidx, align 1
  %inc = add nuw i64 %i.08, 1
  %inc7 = add nuw nsw i32 %mask_index.09, 1
  %7 = load i64, ptr %_size, align 8
  %cmp2 = icmp ult i64 %inc, %7
  br i1 %cmp2, label %for.body, label %if.end, !llvm.loop !5

if.end:                                           ; preds = %for.body, %if.then, %entry
  %_tmpbuf = getelementptr inbounds i8, ptr %this, i64 88
  %_read_pos.i = getelementptr inbounds i8, ptr %this, i64 24
  store ptr %_tmpbuf, ptr %_read_pos.i, align 8
  %_to_read.i = getelementptr inbounds i8, ptr %this, i64 32
  store i64 1, ptr %_to_read.i, align 8
  %_next.i = getelementptr inbounds i8, ptr %this, i64 8
  store i64 ptrtoint (ptr @_ZN3zmq12ws_decoder_t12opcode_readyEPKh to i64), ptr %_next.i, align 8
  %_next.repack1.i = getelementptr inbounds i8, ptr %this, i64 16
  store i64 0, ptr %_next.repack1.i, align 8
  ret i32 1
}